; Function Attrs: mustprogress uwtable
define internal fastcc noundef zeroext i1 @_ZN7msdfgenL22hasLinearArtifactInnerINS_20ShapeDistanceCheckerINS_21SimpleContourCombinerELi4EE18ArtifactClassifierEEEbRKT_ffPKfS9_ff(ptr noundef nonnull align 8 dereferenceable(40) %artifactClassifier, float noundef %am, float noundef %bm, ptr noundef readonly captures(none) %a, ptr noundef readonly captures(none) %b, float noundef %dA, float noundef %dB) unnamed_addr #0 {
entry:
  %conv = fpext float %dA to double
  %sub = fsub float %dA, %dB
  %conv1 = fpext float %sub to double
  %div = fdiv double %conv, %conv1
  %cmp = fcmp ogt double %div, 1.000000e-02
  %cmp2 = fcmp olt double %div, 0x3FEFAE147AE147AE
  %or.cond = and i1 %cmp, %cmp2
  br i1 %or.cond, label %if.then, label %return

if.then:                                          ; preds = %entry
  %0 = load float, ptr %a, align 4
  %1 = load float, ptr %b, align 4
  %sub.i.i = fsub double 1.000000e+00, %div
  %conv.i.i = fpext float %0 to double
  %conv1.i.i = fpext float %1 to double
  %mul2.i.i = fmul double %div, %conv1.i.i
  %2 = tail call double @llvm.fmuladd.f64(double %sub.i.i, double %conv.i.i, double %mul2.i.i)
  %conv3.i.i = fptrunc double %2 to float
  %arrayidx2.i = getelementptr inbounds nuw i8, ptr %a, i64 4
  %3 = load float, ptr %arrayidx2.i, align 4
  %arrayidx3.i = getelementptr inbounds nuw i8, ptr %b, i64 4
  %4 = load float, ptr %arrayidx3.i, align 4
  %conv.i8.i = fpext float %3 to double
  %conv1.i9.i = fpext float %4 to double
  %mul2.i10.i = fmul double %div, %conv1.i9.i
  %5 = tail call double @llvm.fmuladd.f64(double %sub.i.i, double %conv.i8.i, double %mul2.i10.i)
  %conv3.i11.i = fptrunc double %5 to float
  %arrayidx5.i = getelementptr inbounds nuw i8, ptr %a, i64 8
  %6 = load float, ptr %arrayidx5.i, align 4
  %arrayidx6.i = getelementptr inbounds nuw i8, ptr %b, i64 8
  %7 = load float, ptr %arrayidx6.i, align 4
  %conv.i13.i = fpext float %6 to double
  %conv1.i14.i = fpext float %7 to double
  %mul2.i15.i = fmul double %div, %conv1.i14.i
  %8 = tail call double @llvm.fmuladd.f64(double %sub.i.i, double %conv.i13.i, double %mul2.i15.i)
  %conv3.i16.i = fptrunc double %8 to float
  %cmp.i.i.i = fcmp olt float %conv3.i11.i, %conv3.i.i
  %cond.i.i.i = select i1 %cmp.i.i.i, float %conv3.i11.i, float %conv3.i.i
  %cmp.i3.i.i = fcmp olt float %conv3.i.i, %conv3.i11.i
  %cond.i4.i.i = select i1 %cmp.i3.i.i, float %conv3.i11.i, float %conv3.i.i
  %cmp.i5.i.i = fcmp ogt float %cond.i4.i.i, %conv3.i16.i
  %cond.i6.i.i = select i1 %cmp.i5.i.i, float %conv3.i16.i, float %cond.i4.i.i
  %cmp.i7.i.i = fcmp olt float %cond.i.i.i, %cond.i6.i.i
  %cond.i8.i.i = select i1 %cmp.i7.i.i, float %cond.i6.i.i, float %cond.i.i.i
  %cmp.i = fcmp ogt float %am, 5.000000e-01
  %cmp2.i = fcmp ogt float %bm, 5.000000e-01
  %or.cond.i = and i1 %cmp.i, %cmp2.i
  %cmp4.i = fcmp ole float %cond.i8.i.i, 5.000000e-01
  %or.cond1.i = and i1 %or.cond.i, %cmp4.i
  br i1 %or.cond1.i, label %if.then.i, label %lor.lhs.false.i

lor.lhs.false.i:                                  ; preds = %if.then
  %cmp5.i = fcmp olt float %am, 5.000000e-01
  %cmp7.i = fcmp olt float %bm, 5.000000e-01
  %or.cond2.i = and i1 %cmp5.i, %cmp7.i
  %cmp9.i = fcmp oge float %cond.i8.i.i, 5.000000e-01
  %or.cond3.i = and i1 %or.cond2.i, %cmp9.i
  br i1 %or.cond3.i, label %if.then.i, label %lor.lhs.false10.i

lor.lhs.false10.i:                                ; preds = %lor.lhs.false.i
  %protectedFlag.i = getelementptr inbounds nuw i8, ptr %artifactClassifier, i64 8
  %9 = load i8, ptr %protectedFlag.i, align 8
  %tobool.i = trunc i8 %9 to i1
  br i1 %tobool.i, label %_ZNK7msdfgen22BaseArtifactClassifier9rangeTestEdddfff.exit, label %land.lhs.true11.i

land.lhs.true11.i:                                ; preds = %lor.lhs.false10.i
  %cmp.i.i.i8 = fcmp olt float %bm, %am
  %cond.i.i.i9 = select i1 %cmp.i.i.i8, float %bm, float %am
  %cmp.i3.i.i10 = fcmp olt float %am, %bm
  %cond.i4.i.i11 = select i1 %cmp.i3.i.i10, float %bm, float %am
  %cmp.i5.i.i12 = fcmp olt float %cond.i8.i.i, %cond.i4.i.i11
  %cond.i6.i.i13 = select i1 %cmp.i5.i.i12, float %cond.i8.i.i, float %cond.i4.i.i11
  %cmp.i7.i.i14 = fcmp olt float %cond.i.i.i9, %cond.i6.i.i13
  %cond.i8.i.i15 = select i1 %cmp.i7.i.i14, float %cond.i6.i.i13, float %cond.i.i.i9
  %cmp12.i = fcmp une float %cond.i8.i.i15, %cond.i8.i.i
  br i1 %cmp12.i, label %if.then.i, label %_ZNK7msdfgen22BaseArtifactClassifier9rangeTestEdddfff.exit

if.then.i:                                        ; preds = %land.lhs.true11.i, %lor.lhs.false.i, %if.then
  %10 = load double, ptr %artifactClassifier, align 8
  %mul.i = fmul double %div, %10
  %conv.i = fpext float %cond.i8.i.i to double
  %conv16.i = fpext float %am to double
  %sub17.i = fsub double %conv16.i, %mul.i
  %cmp18.i = fcmp ugt double %sub17.i, %conv.i
  %add.i = fadd double %mul.i, %conv16.i
  %cmp22.i = fcmp ult double %add.i, %conv.i
  %or.cond22.i = or i1 %cmp18.i, %cmp22.i
  br i1 %or.cond22.i, label %_ZNK7msdfgen22BaseArtifactClassifier9rangeTestEdddfff.exit, label %land.lhs.true23.i

land.lhs.true23.i:                                ; preds = %if.then.i
  %mul15.i = fmul double %sub.i.i, %10
  %conv25.i = fpext float %bm to double
  %sub26.i = fsub double %conv25.i, %mul15.i
  %cmp27.i = fcmp ugt double %sub26.i, %conv.i
  %add31.i = fadd double %mul15.i, %conv25.i
  %cmp32.i = fcmp ult double %add31.i, %conv.i
  %or.cond23.i = or i1 %cmp27.i, %cmp32.i
  %spec.select.i = select i1 %or.cond23.i, i32 3, i32 1
  br label %_ZNK7msdfgen22BaseArtifactClassifier9rangeTestEdddfff.exit

_ZNK7msdfgen22BaseArtifactClassifier9rangeTestEdddfff.exit: ; preds = %lor.lhs.false10.i, %land.lhs.true11.i, %if.then.i, %land.lhs.true23.i
  %retval.0.i = phi i32 [ 3, %if.then.i ], [ 0, %land.lhs.true11.i ], [ 0, %lor.lhs.false10.i ], [ %spec.select.i, %land.lhs.true23.i ]
  %call4 = tail call noundef zeroext i1 @_ZNK7msdfgen20ShapeDistanceCheckerINS_21SimpleContourCombinerELi4EE18ArtifactClassifier8evaluateEdfi(ptr noundef nonnull align 8 dereferenceable(40) %artifactClassifier, double noundef %div, float noundef %cond.i8.i.i, i32 noundef %retval.0.i)
  br label %return

return:                                           ; preds = %entry, %_ZNK7msdfgen22BaseArtifactClassifier9rangeTestEdddfff.exit
  %retval.0 = phi i1 [ %call4, %_ZNK7msdfgen22BaseArtifactClassifier9rangeTestEdddfff.exit ], [ false, %entry ]
  ret i1 %retval.0
}